Certificate:
    Data:
        Version: 3 (0x2)
        Serial Number: 1 (0x1)
        Signature Algorithm: sha1WithRSAEncryption
        Issuer: C=BA, ST=RS, L=Banja Luka, O=Elektrotehnicki fakultet, OU=ETF, CN=CA tijelo/emailAddress=ca@mail.com
        Validity
            Not Before: Apr 21 17:39:11 2024 GMT
            Not After : Feb 15 17:39:11 2025 GMT
        Subject: C=BA, ST=RS, O=ETF, OU=ETFBL, CN=Marko/emailAddress=marko@mail.com
        Subject Public Key Info:
            Public Key Algorithm: rsaEncryption
                Public-Key: (4096 bit)
                Modulus:
                    00:d8:b6:95:c2:d0:a9:a1:cd:5a:f7:a6:38:2c:db:
                    30:4c:ac:dc:16:9e:89:5b:8a:5a:58:e8:5f:c5:9c:
                    b1:8e:81:d8:22:8c:91:00:1d:58:db:8b:67:3b:41:
                    fb:7c:48:0d:ce:17:f8:40:0c:4d:09:4b:22:43:18:
                    1f:48:6c:2b:f2:53:7b:d2:ed:bb:cf:d0:13:3e:8a:
                    0c:33:e8:3c:a5:59:93:72:b0:57:fa:d3:fb:1f:aa:
                    5b:20:13:35:75:86:bb:41:8f:67:38:3a:5e:96:81:
                    34:48:3a:52:22:b7:b6:a5:90:d6:61:86:7b:5b:ba:
                    b2:d0:f6:50:60:99:0e:dc:ce:03:bd:56:13:e7:5b:
                    8d:41:02:a0:e4:6e:9c:da:8b:25:00:dd:74:a9:83:
                    14:9d:39:99:7e:04:ce:cb:6a:2a:2d:89:94:1c:fb:
                    f2:d0:27:dd:0f:17:60:2d:ab:2e:f8:45:77:0d:a0:
                    9e:18:87:e0:ae:e3:1f:97:00:2c:1c:3d:ef:9f:62:
                    5d:0d:ad:a1:5f:72:e1:f1:9a:f7:7a:07:85:2a:26:
                    f5:e7:92:96:21:62:aa:96:95:ef:d2:b5:36:02:ba:
                    e6:93:8e:49:c1:08:8a:b7:63:de:10:75:08:96:2e:
                    10:f6:e5:4a:ce:34:a0:fe:05:e3:16:d8:82:e2:72:
                    25:ad:1d:cb:c2:55:1b:12:b6:1d:81:96:dd:e7:96:
                    ed:23:07:65:76:1d:3b:de:c4:9f:cd:54:0e:26:23:
                    ee:fb:c5:9d:c6:b2:23:ef:15:47:f6:ab:e2:dd:72:
                    83:cf:72:1f:2d:74:f0:11:91:bb:1f:be:84:98:9c:
                    40:11:45:f5:67:21:22:c8:45:97:5a:a7:ca:87:09:
                    a1:52:9e:1f:ad:35:38:4a:f1:c0:79:77:39:52:08:
                    c7:e8:0d:25:a0:3f:3c:ba:f2:8a:46:82:b5:cf:4d:
                    66:36:ed:81:32:e5:2a:24:70:7c:d7:1f:91:cc:69:
                    92:5e:bf:32:9e:9c:20:69:de:e4:9a:77:50:72:40:
                    a1:60:67:2e:e2:7f:f2:b6:91:07:32:24:87:27:6b:
                    ef:e3:54:e1:8e:f6:5b:ac:6c:71:a1:77:1c:a1:0e:
                    92:2e:c0:4e:bd:30:41:f5:07:07:76:38:81:57:dc:
                    b3:39:c0:f8:d4:e9:f7:c5:ac:46:08:11:26:60:d1:
                    3f:13:42:65:19:a4:47:87:4a:08:e7:a0:18:48:97:
                    a3:41:39:8d:4b:9e:51:43:12:e0:a6:b7:77:65:29:
                    2f:39:05:d1:56:0b:98:45:cd:a1:c9:02:6f:b8:4a:
                    83:43:8c:82:a4:05:21:a1:8a:61:b4:4e:b0:0f:f7:
                    a5:8e:19
                Exponent: 65537 (0x10001)
        X509v3 extensions:
            X509v3 Basic Constraints: 
                CA:FALSE
            X509v3 Key Usage: 
                Digital Signature, Data Encipherment
            X509v3 Extended Key Usage: 
                TLS Web Client Authentication
            Netscape Comment: 
                OpenSSL Generated Certificate
            X509v3 Subject Key Identifier: 
                2E:98:07:5F:B8:1E:80:8E:9D:8C:42:00:DD:24:C1:89:40:2C:25:4B
            X509v3 Authority Key Identifier: 
                2E:98:07:5F:B8:1E:80:8E:9D:8C:42:00:DD:24:C1:89:40:2C:25:4B
            X509v3 CRL Distribution Points: 
                Full Name:
                  URI:http://192.168.21.89/rootcrl.pem
    Signature Algorithm: sha1WithRSAEncryption
    Signature Value:
        41:d3:bc:48:ed:7f:71:80:e1:d8:9b:d5:0e:49:c7:c0:fb:57:
        36:4a:fb:59:06:e7:1f:3c:d7:ac:ac:c2:bd:93:f1:c7:7f:9d:
        b8:87:25:12:d2:46:da:0a:15:76:a2:67:87:2d:1f:0f:26:ed:
        5a:07:a2:71:a9:b8:bb:e0:91:7a:4c:c0:68:2b:a1:51:c8:b0:
        8d:f0:f4:43:33:31:77:7c:d9:16:5f:8f:ea:af:76:b5:d7:2f:
        89:35:48:de:c6:8b:da:6b:40:f4:56:c7:5f:f9:d0:54:b1:35:
        da:24:73:4c:25:87:72:aa:fe:db:46:68:90:fc:61:a4:9e:c0:
        00:a6:d1:ea:f1:60:73:08:39:19:c2:20:b2:68:66:d3:6f:1e:
        66:70:1f:04:bb:4f:e1:fd:5a:f5:d8:8e:6b:95:c9:ef:3c:bb:
        cc:02:f8:90:59:95:a0:05:a9:6c:21:67:2c:08:b4:67:2b:73:
        78:cc:bb:22:ff:fd:f2:d6:6a:d2:ab:cc:4d:98:46:0d:44:a0:
        1d:a9:7a:b7:50:e9:a2:07:5b:2f:86:39:f2:e0:5b:d7:86:fb:
        d2:89:05:6b:f1:57:92:b6:c7:e9:f5:bf:82:d4:26:4d:9d:bf:
        bb:7c:bb:7b:fd:b7:b0:1a:94:72:27:82:b1:46:db:b9:f6:48:
        11:18:65:e9:3f:09:c6:4f:8d:4f:40:7d:04:a7:93:48:23:78:
        88:d0:06:cc:1e:9f:42:cb:bc:ab:06:db:ec:33:df:7b:f8:c0:
        f9:42:96:5e:3d:60:44:72:da:2d:56:07:5c:2f:b1:af:d2:81:
        ce:7b:d5:fb:57:f8:df:48:9f:db:3d:6c:7f:d8:a8:be:eb:bc:
        75:22:6c:35:ff:75:d0:f3:db:27:40:a5:34:24:63:94:6c:55:
        21:78:53:60:1a:f1:fe:12:b3:1b:36:5f:81:07:0f:5e:5a:f1:
        90:01:76:e2:89:b8:00:25:4d:4a:fd:ae:7e:83:ee:b1:79:fc:
        0c:1c:51:d7:fe:6b:fe:3c:68:09:b9:2a:34:95:db:0f:55:1e:
        65:f7:7f:7e:ad:82:6f:5e:17:ff:62:32:46:13:42:45:ad:0a:
        d8:65:3e:77:e4:d7:ae:d7:63:c8:a2:c1:e5:65:48:eb:91:9f:
        c4:0d:ce:7a:8e:1c:d1:c1:e6:cd:4d:02:2e:1f:84:fd:5e:45:
        0d:e6:3f:f1:66:14:de:d6:4c:d4:40:00:99:bf:51:e4:2e:58:
        48:c9:91:bc:95:34:a2:4a:ed:59:25:ca:7b:1b:c9:5e:db:77:
        b4:23:cc:c9:04:bc:26:45:97:94:f7:b2:4d:cf:58:0c:11:f0:
        a2:18:3f:8f:55:76:07:ae
-----BEGIN CERTIFICATE-----
MIIGRTCCBC2gAwIBAgIBATANBgkqhkiG9w0BAQUFADCBkDELMAkGA1UEBhMCQkEx
CzAJBgNVBAgTAlJTMRMwEQYDVQQHEwpCYW5qYSBMdWthMSEwHwYDVQQKExhFbGVr
dHJvdGVobmlja2kgZmFrdWx0ZXQxDDAKBgNVBAsTA0VURjESMBAGA1UEAxMJQ0Eg
dGlqZWxvMRowGAYJKoZIhvcNAQkBFgtjYUBtYWlsLmNvbTAeFw0yNDA0MjExNzM5
MTFaFw0yNTAyMTUxNzM5MTFaMGcxCzAJBgNVBAYTAkJBMQswCQYDVQQIEwJSUzEM
MAoGA1UEChMDRVRGMQ4wDAYDVQQLEwVFVEZCTDEOMAwGA1UEAxMFTWFya28xHTAb
BgkqhkiG9w0BCQEWDm1hcmtvQG1haWwuY29tMIICIjANBgkqhkiG9w0BAQEFAAOC
Ag8AMIICCgKCAgEA2LaVwtCpoc1a96Y4LNswTKzcFp6JW4paWOhfxZyxjoHYIoyR
AB1Y24tnO0H7fEgNzhf4QAxNCUsiQxgfSGwr8lN70u27z9ATPooMM+g8pVmTcrBX
+tP7H6pbIBM1dYa7QY9nODpeloE0SDpSIre2pZDWYYZ7W7qy0PZQYJkO3M4DvVYT
51uNQQKg5G6c2oslAN10qYMUnTmZfgTOy2oqLYmUHPvy0CfdDxdgLasu+EV3DaCe
GIfgruMflwAsHD3vn2JdDa2hX3Lh8Zr3egeFKib155KWIWKqlpXv0rU2Arrmk45J
wQiKt2PeEHUIli4Q9uVKzjSg/gXjFtiC4nIlrR3LwlUbErYdgZbd55btIwdldh07
3sSfzVQOJiPu+8WdxrIj7xVH9qvi3XKDz3IfLXTwEZG7H76EmJxAEUX1ZyEiyEWX
WqfKhwmhUp4frTU4SvHAeXc5UgjH6A0loD88uvKKRoK1z01mNu2BMuUqJHB81x+R
zGmSXr8ynpwgad7kmndQckChYGcu4n/ytpEHMiSHJ2vv41ThjvZbrGxxoXccoQ6S
LsBOvTBB9QcHdjiBV9yzOcD41On3xaxGCBEmYNE/E0JlGaRHh0oI56AYSJejQTmN
S55RQxLgprd3ZSkvOQXRVguYRc2hyQJvuEqDQ4yCpAUhoYphtE6wD/eljhkCAwEA
AaOB0TCBzjAJBgNVHRMEAjAAMAsGA1UdDwQEAwIEkDATBgNVHSUEDDAKBggrBgEF
BQcDAjAsBglghkgBhvhCAQ0EHxYdT3BlblNTTCBHZW5lcmF0ZWQgQ2VydGlmaWNh
dGUwHQYDVR0OBBYEFC6YB1+4HoCOnYxCAN0kwYlALCVLMB8GA1UdIwQYMBaAFC6Y
B1+4HoCOnYxCAN0kwYlALCVLMDEGA1UdHwQqMCgwJqAkoCKGIGh0dHA6Ly8xOTIu
MTY4LjIxLjg5L3Jvb3RjcmwucGVtMA0GCSqGSIb3DQEBBQUAA4ICAQBB07xI7X9x
gOHYm9UOScfA+1c2SvtZBucfPNesrMK9k/HHf524hyUS0kbaChV2omeHLR8PJu1a
B6Jxqbi74JF6TMBoK6FRyLCN8PRDMzF3fNkWX4/qr3a11y+JNUjexovaa0D0Vsdf
+dBUsTXaJHNMJYdyqv7bRmiQ/GGknsAAptHq8WBzCDkZwiCyaGbTbx5mcB8Eu0/h
/Vr12I5rlcnvPLvMAviQWZWgBalsIWcsCLRnK3N4zLsi//3y1mrSq8xNmEYNRKAd
qXq3UOmiB1svhjny4FvXhvvSiQVr8VeStsfp9b+C1CZNnb+7fLt7/bewGpRyJ4Kx
Rtu59kgRGGXpPwnGT41PQH0Ep5NII3iI0AbMHp9Cy7yrBtvsM997+MD5QpZePWBE
ctotVgdcL7Gv0oHOe9X7V/jfSJ/bPWx/2Ki+67x1Imw1/3XQ89snQKU0JGOUbFUh
eFNgGvH+ErMbNl+BBw9eWvGQAXbiibgAJU1K/a5+g+6xefwMHFHX/mv+PGgJuSo0
ldsPVR5l939+rYJvXhf/YjJGE0JFrQrYZT535Neu12PIosHlZUjrkZ/EDc56jhzR
webNTQIuH4T9XkUN5j/xZhTe1kzUQACZv1HkLlhIyZG8lTSiSu1ZJcp7G8le23e0
I8zJBLwmRZeU97JNz1gMEfCiGD+PVXYHrg==
-----END CERTIFICATE-----
