Certificate:
    Data:
        Version: 3 (0x2)
        Serial Number: 2 (0x2)
        Signature Algorithm: sha1WithRSAEncryption
        Issuer: C=BA, ST=RS, L=Banja Luka, O=Elektrotehnicki fakultet, OU=ETF, CN=CA tijelo/emailAddress=ca@mail.com
        Validity
            Not Before: Apr 21 17:41:32 2024 GMT
            Not After : Feb 15 17:41:32 2025 GMT
        Subject: C=BA, ST=RS, O=ETF, OU=ETFBL, CN=Milan/emailAddress=milan@mail.com
        Subject Public Key Info:
            Public Key Algorithm: rsaEncryption
                Public-Key: (4096 bit)
                Modulus:
                    00:d8:b6:95:c2:d0:a9:a1:cd:5a:f7:a6:38:2c:db:
                    30:4c:ac:dc:16:9e:89:5b:8a:5a:58:e8:5f:c5:9c:
                    b1:8e:81:d8:22:8c:91:00:1d:58:db:8b:67:3b:41:
                    fb:7c:48:0d:ce:17:f8:40:0c:4d:09:4b:22:43:18:
                    1f:48:6c:2b:f2:53:7b:d2:ed:bb:cf:d0:13:3e:8a:
                    0c:33:e8:3c:a5:59:93:72:b0:57:fa:d3:fb:1f:aa:
                    5b:20:13:35:75:86:bb:41:8f:67:38:3a:5e:96:81:
                    34:48:3a:52:22:b7:b6:a5:90:d6:61:86:7b:5b:ba:
                    b2:d0:f6:50:60:99:0e:dc:ce:03:bd:56:13:e7:5b:
                    8d:41:02:a0:e4:6e:9c:da:8b:25:00:dd:74:a9:83:
                    14:9d:39:99:7e:04:ce:cb:6a:2a:2d:89:94:1c:fb:
                    f2:d0:27:dd:0f:17:60:2d:ab:2e:f8:45:77:0d:a0:
                    9e:18:87:e0:ae:e3:1f:97:00:2c:1c:3d:ef:9f:62:
                    5d:0d:ad:a1:5f:72:e1:f1:9a:f7:7a:07:85:2a:26:
                    f5:e7:92:96:21:62:aa:96:95:ef:d2:b5:36:02:ba:
                    e6:93:8e:49:c1:08:8a:b7:63:de:10:75:08:96:2e:
                    10:f6:e5:4a:ce:34:a0:fe:05:e3:16:d8:82:e2:72:
                    25:ad:1d:cb:c2:55:1b:12:b6:1d:81:96:dd:e7:96:
                    ed:23:07:65:76:1d:3b:de:c4:9f:cd:54:0e:26:23:
                    ee:fb:c5:9d:c6:b2:23:ef:15:47:f6:ab:e2:dd:72:
                    83:cf:72:1f:2d:74:f0:11:91:bb:1f:be:84:98:9c:
                    40:11:45:f5:67:21:22:c8:45:97:5a:a7:ca:87:09:
                    a1:52:9e:1f:ad:35:38:4a:f1:c0:79:77:39:52:08:
                    c7:e8:0d:25:a0:3f:3c:ba:f2:8a:46:82:b5:cf:4d:
                    66:36:ed:81:32:e5:2a:24:70:7c:d7:1f:91:cc:69:
                    92:5e:bf:32:9e:9c:20:69:de:e4:9a:77:50:72:40:
                    a1:60:67:2e:e2:7f:f2:b6:91:07:32:24:87:27:6b:
                    ef:e3:54:e1:8e:f6:5b:ac:6c:71:a1:77:1c:a1:0e:
                    92:2e:c0:4e:bd:30:41:f5:07:07:76:38:81:57:dc:
                    b3:39:c0:f8:d4:e9:f7:c5:ac:46:08:11:26:60:d1:
                    3f:13:42:65:19:a4:47:87:4a:08:e7:a0:18:48:97:
                    a3:41:39:8d:4b:9e:51:43:12:e0:a6:b7:77:65:29:
                    2f:39:05:d1:56:0b:98:45:cd:a1:c9:02:6f:b8:4a:
                    83:43:8c:82:a4:05:21:a1:8a:61:b4:4e:b0:0f:f7:
                    a5:8e:19
                Exponent: 65537 (0x10001)
        X509v3 extensions:
            X509v3 Basic Constraints: 
                CA:FALSE
            X509v3 Key Usage: 
                Digital Signature, Data Encipherment
            X509v3 Extended Key Usage: 
                TLS Web Client Authentication
            Netscape Comment: 
                OpenSSL Generated Certificate
            X509v3 Subject Key Identifier: 
                2E:98:07:5F:B8:1E:80:8E:9D:8C:42:00:DD:24:C1:89:40:2C:25:4B
            X509v3 Authority Key Identifier: 
                2E:98:07:5F:B8:1E:80:8E:9D:8C:42:00:DD:24:C1:89:40:2C:25:4B
            X509v3 CRL Distribution Points: 
                Full Name:
                  URI:http://192.168.21.89/rootcrl.pem
    Signature Algorithm: sha1WithRSAEncryption
    Signature Value:
        9b:44:b2:8b:43:ed:01:68:1f:8f:9f:66:18:59:29:4a:50:b2:
        ad:88:75:64:57:bb:e3:3c:f9:f9:7d:59:f9:c9:3e:df:f3:10:
        8d:55:a3:49:df:0c:36:77:c4:c7:ab:4d:86:29:c2:0b:3f:87:
        95:93:74:b8:b6:a9:1d:b1:1d:c5:78:88:34:84:5d:5b:87:a0:
        b7:91:b3:e0:1c:3f:14:b7:83:cc:f9:7d:76:0d:d0:67:62:95:
        d6:9b:c2:05:8b:92:67:38:93:ca:ec:d4:e3:c2:6f:7d:7a:9d:
        d5:17:95:ad:6a:4d:a8:e7:0d:b9:ce:4a:bb:ee:04:4b:fa:41:
        05:a8:53:82:e3:62:90:2e:4f:4f:76:2e:75:97:5f:02:72:28:
        ba:16:1e:e8:ae:62:fc:84:b3:2e:b7:b3:a4:a0:6c:f3:56:86:
        64:c7:57:48:f1:56:31:a6:c7:fc:f5:25:ee:c8:5a:bc:1f:28:
        51:69:3c:ef:1e:8a:2d:e2:5c:40:58:f4:27:d8:f4:8f:b3:d5:
        c2:10:ea:ac:69:c3:53:65:85:80:f8:87:f6:65:d7:7d:7e:4a:
        45:a8:bf:16:1a:2e:28:a8:c9:c9:53:f5:0b:25:b7:2a:d1:3d:
        df:a2:a1:1d:f7:45:2e:2b:71:37:6e:16:49:19:4b:d2:d4:6e:
        99:40:a8:fe:1a:6b:0c:e0:77:df:da:fa:a6:e9:44:d7:06:dd:
        38:23:e9:d3:2f:46:91:4f:53:51:96:8c:aa:8e:f7:9e:aa:b6:
        49:b3:ad:ae:0b:24:b4:84:65:6a:b8:f7:a0:c4:bc:7e:36:33:
        9c:fa:59:b0:dc:cc:94:58:e2:77:a4:7d:38:f9:c6:93:2c:72:
        2c:80:03:73:62:07:40:74:50:43:db:81:75:85:8d:51:c0:b9:
        e6:2d:f7:99:2b:9b:67:69:f5:55:b0:4a:cb:87:5b:5e:55:5e:
        24:ce:09:f5:12:b6:8a:11:25:a6:75:56:ba:b3:32:31:ac:97:
        9c:39:57:be:0a:ac:14:de:64:a6:83:41:d3:58:b4:58:26:d7:
        69:09:cf:90:7d:be:82:3e:37:c7:d3:3c:8e:ab:4e:54:e4:09:
        a7:18:96:62:a4:d1:b3:4d:4b:60:70:2e:85:c3:2c:49:56:af:
        4d:2d:f3:e2:43:e1:50:42:8c:20:51:27:6b:34:e3:0a:b4:5f:
        4c:81:c7:6c:ca:34:ed:8a:b8:6f:9c:0f:90:c7:fe:f9:e9:24:
        88:84:cc:63:d5:4a:05:ce:e0:e1:75:33:eb:23:a0:04:50:61:
        4b:17:2c:6f:ca:22:99:20:14:bb:cd:99:91:b9:8b:f9:f5:2e:
        57:1f:26:5d:ba:1e:0c:a9
-----BEGIN CERTIFICATE-----
MIIGRTCCBC2gAwIBAgIBAjANBgkqhkiG9w0BAQUFADCBkDELMAkGA1UEBhMCQkEx
CzAJBgNVBAgTAlJTMRMwEQYDVQQHEwpCYW5qYSBMdWthMSEwHwYDVQQKExhFbGVr
dHJvdGVobmlja2kgZmFrdWx0ZXQxDDAKBgNVBAsTA0VURjESMBAGA1UEAxMJQ0Eg
dGlqZWxvMRowGAYJKoZIhvcNAQkBFgtjYUBtYWlsLmNvbTAeFw0yNDA0MjExNzQx
MzJaFw0yNTAyMTUxNzQxMzJaMGcxCzAJBgNVBAYTAkJBMQswCQYDVQQIEwJSUzEM
MAoGA1UEChMDRVRGMQ4wDAYDVQQLEwVFVEZCTDEOMAwGA1UEAxMFTWlsYW4xHTAb
BgkqhkiG9w0BCQEWDm1pbGFuQG1haWwuY29tMIICIjANBgkqhkiG9w0BAQEFAAOC
Ag8AMIICCgKCAgEA2LaVwtCpoc1a96Y4LNswTKzcFp6JW4paWOhfxZyxjoHYIoyR
AB1Y24tnO0H7fEgNzhf4QAxNCUsiQxgfSGwr8lN70u27z9ATPooMM+g8pVmTcrBX
+tP7H6pbIBM1dYa7QY9nODpeloE0SDpSIre2pZDWYYZ7W7qy0PZQYJkO3M4DvVYT
51uNQQKg5G6c2oslAN10qYMUnTmZfgTOy2oqLYmUHPvy0CfdDxdgLasu+EV3DaCe
GIfgruMflwAsHD3vn2JdDa2hX3Lh8Zr3egeFKib155KWIWKqlpXv0rU2Arrmk45J
wQiKt2PeEHUIli4Q9uVKzjSg/gXjFtiC4nIlrR3LwlUbErYdgZbd55btIwdldh07
3sSfzVQOJiPu+8WdxrIj7xVH9qvi3XKDz3IfLXTwEZG7H76EmJxAEUX1ZyEiyEWX
WqfKhwmhUp4frTU4SvHAeXc5UgjH6A0loD88uvKKRoK1z01mNu2BMuUqJHB81x+R
zGmSXr8ynpwgad7kmndQckChYGcu4n/ytpEHMiSHJ2vv41ThjvZbrGxxoXccoQ6S
LsBOvTBB9QcHdjiBV9yzOcD41On3xaxGCBEmYNE/E0JlGaRHh0oI56AYSJejQTmN
S55RQxLgprd3ZSkvOQXRVguYRc2hyQJvuEqDQ4yCpAUhoYphtE6wD/eljhkCAwEA
AaOB0TCBzjAJBgNVHRMEAjAAMAsGA1UdDwQEAwIEkDATBgNVHSUEDDAKBggrBgEF
BQcDAjAsBglghkgBhvhCAQ0EHxYdT3BlblNTTCBHZW5lcmF0ZWQgQ2VydGlmaWNh
dGUwHQYDVR0OBBYEFC6YB1+4HoCOnYxCAN0kwYlALCVLMB8GA1UdIwQYMBaAFC6Y
B1+4HoCOnYxCAN0kwYlALCVLMDEGA1UdHwQqMCgwJqAkoCKGIGh0dHA6Ly8xOTIu
MTY4LjIxLjg5L3Jvb3RjcmwucGVtMA0GCSqGSIb3DQEBBQUAA4ICAQCbRLKLQ+0B
aB+Pn2YYWSlKULKtiHVkV7vjPPn5fVn5yT7f8xCNVaNJ3ww2d8THq02GKcILP4eV
k3S4tqkdsR3FeIg0hF1bh6C3kbPgHD8Ut4PM+X12DdBnYpXWm8IFi5JnOJPK7NTj
wm99ep3VF5Wtak2o5w25zkq77gRL+kEFqFOC42KQLk9Pdi51l18Ccii6Fh7ormL8
hLMut7OkoGzzVoZkx1dI8VYxpsf89SXuyFq8HyhRaTzvHoot4lxAWPQn2PSPs9XC
EOqsacNTZYWA+If2Zdd9fkpFqL8WGi4oqMnJU/ULJbcq0T3foqEd90UuK3E3bhZJ
GUvS1G6ZQKj+GmsM4Hff2vqm6UTXBt04I+nTL0aRT1NRloyqjveeqrZJs62uCyS0
hGVquPegxLx+NjOc+lmw3MyUWOJ3pH04+caTLHIsgANzYgdAdFBD24F1hY1RwLnm
LfeZK5tnafVVsErLh1teVV4kzgn1EraKESWmdVa6szIxrJecOVe+CqwU3mSmg0HT
WLRYJtdpCc+Qfb6CPjfH0zyOq05U5AmnGJZipNGzTUtgcC6FwyxJVq9NLfPiQ+FQ
QowgUSdrNOMKtF9MgcdsyjTtirhvnA+Qx/756SSIhMxj1UoFzuDhdTPrI6AEUGFL
FyxvyiKZIBS7zZmRuYv59S5XHyZduh4MqQ==
-----END CERTIFICATE-----
