Certificate:
    Data:
        Version: 3 (0x2)
        Serial Number: 4 (0x4)
        Signature Algorithm: sha1WithRSAEncryption
        Issuer: C=BA, ST=RS, L=Banja Luka, O=Elektrotehnicki fakultet, OU=ETF, CN=CA tijelo/emailAddress=ca@mail.com
        Validity
            Not Before: Apr 21 22:08:23 2024 GMT
            Not After : Feb 15 22:08:23 2025 GMT
        Subject: C=BA, ST=RS, O=ETF, OU=ETFBL, CN=Petar/emailAddress=petar@mail.com
        Subject Public Key Info:
            Public Key Algorithm: rsaEncryption
                Public-Key: (4096 bit)
                Modulus:
                    00:d8:b6:95:c2:d0:a9:a1:cd:5a:f7:a6:38:2c:db:
                    30:4c:ac:dc:16:9e:89:5b:8a:5a:58:e8:5f:c5:9c:
                    b1:8e:81:d8:22:8c:91:00:1d:58:db:8b:67:3b:41:
                    fb:7c:48:0d:ce:17:f8:40:0c:4d:09:4b:22:43:18:
                    1f:48:6c:2b:f2:53:7b:d2:ed:bb:cf:d0:13:3e:8a:
                    0c:33:e8:3c:a5:59:93:72:b0:57:fa:d3:fb:1f:aa:
                    5b:20:13:35:75:86:bb:41:8f:67:38:3a:5e:96:81:
                    34:48:3a:52:22:b7:b6:a5:90:d6:61:86:7b:5b:ba:
                    b2:d0:f6:50:60:99:0e:dc:ce:03:bd:56:13:e7:5b:
                    8d:41:02:a0:e4:6e:9c:da:8b:25:00:dd:74:a9:83:
                    14:9d:39:99:7e:04:ce:cb:6a:2a:2d:89:94:1c:fb:
                    f2:d0:27:dd:0f:17:60:2d:ab:2e:f8:45:77:0d:a0:
                    9e:18:87:e0:ae:e3:1f:97:00:2c:1c:3d:ef:9f:62:
                    5d:0d:ad:a1:5f:72:e1:f1:9a:f7:7a:07:85:2a:26:
                    f5:e7:92:96:21:62:aa:96:95:ef:d2:b5:36:02:ba:
                    e6:93:8e:49:c1:08:8a:b7:63:de:10:75:08:96:2e:
                    10:f6:e5:4a:ce:34:a0:fe:05:e3:16:d8:82:e2:72:
                    25:ad:1d:cb:c2:55:1b:12:b6:1d:81:96:dd:e7:96:
                    ed:23:07:65:76:1d:3b:de:c4:9f:cd:54:0e:26:23:
                    ee:fb:c5:9d:c6:b2:23:ef:15:47:f6:ab:e2:dd:72:
                    83:cf:72:1f:2d:74:f0:11:91:bb:1f:be:84:98:9c:
                    40:11:45:f5:67:21:22:c8:45:97:5a:a7:ca:87:09:
                    a1:52:9e:1f:ad:35:38:4a:f1:c0:79:77:39:52:08:
                    c7:e8:0d:25:a0:3f:3c:ba:f2:8a:46:82:b5:cf:4d:
                    66:36:ed:81:32:e5:2a:24:70:7c:d7:1f:91:cc:69:
                    92:5e:bf:32:9e:9c:20:69:de:e4:9a:77:50:72:40:
                    a1:60:67:2e:e2:7f:f2:b6:91:07:32:24:87:27:6b:
                    ef:e3:54:e1:8e:f6:5b:ac:6c:71:a1:77:1c:a1:0e:
                    92:2e:c0:4e:bd:30:41:f5:07:07:76:38:81:57:dc:
                    b3:39:c0:f8:d4:e9:f7:c5:ac:46:08:11:26:60:d1:
                    3f:13:42:65:19:a4:47:87:4a:08:e7:a0:18:48:97:
                    a3:41:39:8d:4b:9e:51:43:12:e0:a6:b7:77:65:29:
                    2f:39:05:d1:56:0b:98:45:cd:a1:c9:02:6f:b8:4a:
                    83:43:8c:82:a4:05:21:a1:8a:61:b4:4e:b0:0f:f7:
                    a5:8e:19
                Exponent: 65537 (0x10001)
        X509v3 extensions:
            X509v3 Basic Constraints: 
                CA:FALSE
            X509v3 Key Usage: 
                Digital Signature, Data Encipherment
            X509v3 Extended Key Usage: 
                TLS Web Client Authentication
            Netscape Comment: 
                OpenSSL Generated Certificate
            X509v3 Subject Key Identifier: 
                2E:98:07:5F:B8:1E:80:8E:9D:8C:42:00:DD:24:C1:89:40:2C:25:4B
            X509v3 Authority Key Identifier: 
                2E:98:07:5F:B8:1E:80:8E:9D:8C:42:00:DD:24:C1:89:40:2C:25:4B
            X509v3 CRL Distribution Points: 
                Full Name:
                  URI:http://192.168.21.89/rootcrl.pem
    Signature Algorithm: sha1WithRSAEncryption
    Signature Value:
        73:7c:5c:2f:c1:dc:59:39:ce:6c:f9:5c:9c:2d:b7:e7:8d:c4:
        47:84:e3:68:b9:34:f4:9b:51:ac:c2:34:63:c8:61:22:f5:79:
        1a:1a:9e:65:30:7a:d4:00:fe:de:4c:c2:d3:d8:72:45:8c:b4:
        05:74:0d:87:4f:ae:32:32:31:5a:65:ad:45:96:aa:ab:8f:e6:
        a6:11:7a:01:2c:1e:b0:1f:62:8a:5c:b5:d9:f7:17:03:1c:24:
        80:31:fa:f2:81:65:c9:2e:54:e7:6c:92:b8:a7:1c:c8:49:ac:
        7f:eb:0b:89:df:3e:c2:9b:6e:89:d6:ba:ae:8d:74:04:20:49:
        f3:19:e3:41:b3:cd:52:4a:cf:a0:32:98:47:9d:4b:ca:1a:85:
        7e:e6:79:9b:70:b2:6b:bb:77:9e:ab:ef:e0:66:d5:29:4f:e1:
        25:f6:c5:79:97:d0:84:5c:d1:99:f8:3b:44:cd:4d:47:4f:80:
        df:79:99:dc:09:aa:c7:2d:2d:9f:fd:3a:69:e6:66:6e:d9:05:
        f8:ae:84:49:a0:0e:ca:c5:5a:88:3b:e5:3c:b0:c3:1e:f0:75:
        dc:91:ef:35:f6:e9:53:24:a4:a8:f7:84:d8:b2:b4:40:9b:5a:
        e7:1b:e9:fe:26:d0:1e:f4:4b:09:65:e9:d4:98:fd:fe:cd:61:
        bc:58:59:69:18:45:fa:dc:db:a9:8e:c1:9d:df:e5:04:01:13:
        f2:dc:e1:e8:d5:8a:9d:08:e0:1d:f6:56:59:54:4b:45:08:9a:
        40:93:cb:bd:c3:af:26:4f:13:14:20:24:f9:41:e7:c8:4f:80:
        c4:0a:97:8a:53:bd:b0:e9:61:83:36:fc:97:e2:43:34:19:c8:
        ad:48:05:16:57:ba:78:ff:30:ad:67:e8:88:cc:dc:16:d2:57:
        9b:79:b9:08:c0:6a:71:b6:4d:ec:11:80:b2:65:37:ad:60:0f:
        f4:50:a8:cd:ce:7f:8d:a2:df:2c:9f:9b:c1:74:2b:68:bf:a6:
        86:eb:de:f7:ba:1a:cf:ed:ae:ed:08:7f:c7:ae:48:f6:46:c6:
        c2:e3:3a:ef:9a:53:73:de:72:93:19:42:56:87:8b:33:7a:cb:
        df:7b:f5:cb:cf:ca:70:7a:e6:c1:cd:d9:6d:43:5a:bd:03:af:
        89:08:cc:6a:17:36:63:39:5e:b3:67:ec:34:8c:12:1e:8b:c0:
        6f:64:ba:40:9e:ea:37:22:00:a0:fc:45:3d:2a:44:16:24:bf:
        da:66:60:a1:1f:5e:be:44:98:14:3e:59:43:d9:22:17:7c:76:
        06:89:e6:b6:34:e1:04:a6:8a:a5:10:a8:b5:c2:3b:09:ac:42:
        87:0f:2c:2e:c6:55:d4:f9
-----BEGIN CERTIFICATE-----
MIIGRTCCBC2gAwIBAgIBBDANBgkqhkiG9w0BAQUFADCBkDELMAkGA1UEBhMCQkEx
CzAJBgNVBAgTAlJTMRMwEQYDVQQHEwpCYW5qYSBMdWthMSEwHwYDVQQKExhFbGVr
dHJvdGVobmlja2kgZmFrdWx0ZXQxDDAKBgNVBAsTA0VURjESMBAGA1UEAxMJQ0Eg
dGlqZWxvMRowGAYJKoZIhvcNAQkBFgtjYUBtYWlsLmNvbTAeFw0yNDA0MjEyMjA4
MjNaFw0yNTAyMTUyMjA4MjNaMGcxCzAJBgNVBAYTAkJBMQswCQYDVQQIEwJSUzEM
MAoGA1UEChMDRVRGMQ4wDAYDVQQLEwVFVEZCTDEOMAwGA1UEAxMFUGV0YXIxHTAb
BgkqhkiG9w0BCQEWDnBldGFyQG1haWwuY29tMIICIjANBgkqhkiG9w0BAQEFAAOC
Ag8AMIICCgKCAgEA2LaVwtCpoc1a96Y4LNswTKzcFp6JW4paWOhfxZyxjoHYIoyR
AB1Y24tnO0H7fEgNzhf4QAxNCUsiQxgfSGwr8lN70u27z9ATPooMM+g8pVmTcrBX
+tP7H6pbIBM1dYa7QY9nODpeloE0SDpSIre2pZDWYYZ7W7qy0PZQYJkO3M4DvVYT
51uNQQKg5G6c2oslAN10qYMUnTmZfgTOy2oqLYmUHPvy0CfdDxdgLasu+EV3DaCe
GIfgruMflwAsHD3vn2JdDa2hX3Lh8Zr3egeFKib155KWIWKqlpXv0rU2Arrmk45J
wQiKt2PeEHUIli4Q9uVKzjSg/gXjFtiC4nIlrR3LwlUbErYdgZbd55btIwdldh07
3sSfzVQOJiPu+8WdxrIj7xVH9qvi3XKDz3IfLXTwEZG7H76EmJxAEUX1ZyEiyEWX
WqfKhwmhUp4frTU4SvHAeXc5UgjH6A0loD88uvKKRoK1z01mNu2BMuUqJHB81x+R
zGmSXr8ynpwgad7kmndQckChYGcu4n/ytpEHMiSHJ2vv41ThjvZbrGxxoXccoQ6S
LsBOvTBB9QcHdjiBV9yzOcD41On3xaxGCBEmYNE/E0JlGaRHh0oI56AYSJejQTmN
S55RQxLgprd3ZSkvOQXRVguYRc2hyQJvuEqDQ4yCpAUhoYphtE6wD/eljhkCAwEA
AaOB0TCBzjAJBgNVHRMEAjAAMAsGA1UdDwQEAwIEkDATBgNVHSUEDDAKBggrBgEF
BQcDAjAsBglghkgBhvhCAQ0EHxYdT3BlblNTTCBHZW5lcmF0ZWQgQ2VydGlmaWNh
dGUwHQYDVR0OBBYEFC6YB1+4HoCOnYxCAN0kwYlALCVLMB8GA1UdIwQYMBaAFC6Y
B1+4HoCOnYxCAN0kwYlALCVLMDEGA1UdHwQqMCgwJqAkoCKGIGh0dHA6Ly8xOTIu
MTY4LjIxLjg5L3Jvb3RjcmwucGVtMA0GCSqGSIb3DQEBBQUAA4ICAQBzfFwvwdxZ
Oc5s+VycLbfnjcRHhONouTT0m1GswjRjyGEi9XkaGp5lMHrUAP7eTMLT2HJFjLQF
dA2HT64yMjFaZa1Flqqrj+amEXoBLB6wH2KKXLXZ9xcDHCSAMfrygWXJLlTnbJK4
pxzISax/6wuJ3z7Cm26J1rqujXQEIEnzGeNBs81SSs+gMphHnUvKGoV+5nmbcLJr
u3eeq+/gZtUpT+El9sV5l9CEXNGZ+DtEzU1HT4DfeZncCarHLS2f/Tpp5mZu2QX4
roRJoA7KxVqIO+U8sMMe8HXcke819ulTJKSo94TYsrRAm1rnG+n+JtAe9EsJZenU
mP3+zWG8WFlpGEX63NupjsGd3+UEARPy3OHo1YqdCOAd9lZZVEtFCJpAk8u9w68m
TxMUICT5QefIT4DECpeKU72w6WGDNvyX4kM0GcitSAUWV7p4/zCtZ+iIzNwW0leb
ebkIwGpxtk3sEYCyZTetYA/0UKjNzn+Not8sn5vBdCtov6aG6973uhrP7a7tCH/H
rkj2RsbC4zrvmlNz3nKTGUJWh4szesvfe/XLz8pweubBzdltQ1q9A6+JCMxqFzZj
OV6zZ+w0jBIei8BvZLpAnuo3IgCg/EU9KkQWJL/aZmChH16+RJgUPllD2SIXfHYG
iea2NOEEpoqlEKi1wjsJrEKHDywuxlXU+Q==
-----END CERTIFICATE-----
