Certificate:
    Data:
        Version: 3 (0x2)
        Serial Number: 3 (0x3)
        Signature Algorithm: sha1WithRSAEncryption
        Issuer: C=BA, ST=RS, L=Banja Luka, O=Elektrotehnicki fakultet, OU=ETF, CN=CA tijelo/emailAddress=ca@mail.com
        Validity
            Not Before: Apr 21 18:28:43 2024 GMT
            Not After : Feb 15 18:28:43 2025 GMT
        Subject: C=BA, ST=RS, O=ETF, OU=ETFBL, CN=Nikola/emailAddress=nikola@mail.com
        Subject Public Key Info:
            Public Key Algorithm: rsaEncryption
                Public-Key: (4096 bit)
                Modulus:
                    00:d8:b6:95:c2:d0:a9:a1:cd:5a:f7:a6:38:2c:db:
                    30:4c:ac:dc:16:9e:89:5b:8a:5a:58:e8:5f:c5:9c:
                    b1:8e:81:d8:22:8c:91:00:1d:58:db:8b:67:3b:41:
                    fb:7c:48:0d:ce:17:f8:40:0c:4d:09:4b:22:43:18:
                    1f:48:6c:2b:f2:53:7b:d2:ed:bb:cf:d0:13:3e:8a:
                    0c:33:e8:3c:a5:59:93:72:b0:57:fa:d3:fb:1f:aa:
                    5b:20:13:35:75:86:bb:41:8f:67:38:3a:5e:96:81:
                    34:48:3a:52:22:b7:b6:a5:90:d6:61:86:7b:5b:ba:
                    b2:d0:f6:50:60:99:0e:dc:ce:03:bd:56:13:e7:5b:
                    8d:41:02:a0:e4:6e:9c:da:8b:25:00:dd:74:a9:83:
                    14:9d:39:99:7e:04:ce:cb:6a:2a:2d:89:94:1c:fb:
                    f2:d0:27:dd:0f:17:60:2d:ab:2e:f8:45:77:0d:a0:
                    9e:18:87:e0:ae:e3:1f:97:00:2c:1c:3d:ef:9f:62:
                    5d:0d:ad:a1:5f:72:e1:f1:9a:f7:7a:07:85:2a:26:
                    f5:e7:92:96:21:62:aa:96:95:ef:d2:b5:36:02:ba:
                    e6:93:8e:49:c1:08:8a:b7:63:de:10:75:08:96:2e:
                    10:f6:e5:4a:ce:34:a0:fe:05:e3:16:d8:82:e2:72:
                    25:ad:1d:cb:c2:55:1b:12:b6:1d:81:96:dd:e7:96:
                    ed:23:07:65:76:1d:3b:de:c4:9f:cd:54:0e:26:23:
                    ee:fb:c5:9d:c6:b2:23:ef:15:47:f6:ab:e2:dd:72:
                    83:cf:72:1f:2d:74:f0:11:91:bb:1f:be:84:98:9c:
                    40:11:45:f5:67:21:22:c8:45:97:5a:a7:ca:87:09:
                    a1:52:9e:1f:ad:35:38:4a:f1:c0:79:77:39:52:08:
                    c7:e8:0d:25:a0:3f:3c:ba:f2:8a:46:82:b5:cf:4d:
                    66:36:ed:81:32:e5:2a:24:70:7c:d7:1f:91:cc:69:
                    92:5e:bf:32:9e:9c:20:69:de:e4:9a:77:50:72:40:
                    a1:60:67:2e:e2:7f:f2:b6:91:07:32:24:87:27:6b:
                    ef:e3:54:e1:8e:f6:5b:ac:6c:71:a1:77:1c:a1:0e:
                    92:2e:c0:4e:bd:30:41:f5:07:07:76:38:81:57:dc:
                    b3:39:c0:f8:d4:e9:f7:c5:ac:46:08:11:26:60:d1:
                    3f:13:42:65:19:a4:47:87:4a:08:e7:a0:18:48:97:
                    a3:41:39:8d:4b:9e:51:43:12:e0:a6:b7:77:65:29:
                    2f:39:05:d1:56:0b:98:45:cd:a1:c9:02:6f:b8:4a:
                    83:43:8c:82:a4:05:21:a1:8a:61:b4:4e:b0:0f:f7:
                    a5:8e:19
                Exponent: 65537 (0x10001)
        X509v3 extensions:
            X509v3 Basic Constraints: 
                CA:FALSE
            X509v3 Key Usage: 
                Digital Signature, Data Encipherment
            X509v3 Extended Key Usage: 
                TLS Web Client Authentication
            Netscape Comment: 
                OpenSSL Generated Certificate
            X509v3 Subject Key Identifier: 
                2E:98:07:5F:B8:1E:80:8E:9D:8C:42:00:DD:24:C1:89:40:2C:25:4B
            X509v3 Authority Key Identifier: 
                2E:98:07:5F:B8:1E:80:8E:9D:8C:42:00:DD:24:C1:89:40:2C:25:4B
            X509v3 CRL Distribution Points: 
                Full Name:
                  URI:http://192.168.21.89/rootcrl.pem
    Signature Algorithm: sha1WithRSAEncryption
    Signature Value:
        57:33:74:54:3f:43:ce:bd:6b:97:5e:dc:c8:23:de:b8:6c:86:
        18:a2:fc:2b:70:8c:9a:a0:f5:ee:11:1c:56:90:4a:e9:5f:a0:
        2d:ef:16:da:38:03:27:95:14:d1:93:6d:9e:c0:41:76:6d:82:
        30:64:fc:3a:3a:ca:2a:62:b8:c8:9f:48:9b:1b:74:7f:ed:d3:
        6b:ee:9e:a2:ac:10:ee:55:ee:4e:be:dc:dc:32:ea:b3:1b:75:
        ad:67:83:31:90:b4:79:08:0c:c3:73:e3:9e:e9:42:08:b9:0d:
        28:fe:a1:3a:78:7b:54:b5:56:b9:a7:ee:fb:4e:07:e1:d9:b8:
        bb:96:53:7a:c5:e0:3e:c6:94:f3:04:2a:af:82:f0:8a:e7:cb:
        dc:eb:02:ef:7f:e0:d5:8e:00:b2:25:4f:57:3c:09:c7:1e:e3:
        6b:27:67:a7:38:c1:af:1b:7e:c9:d5:f8:7e:eb:d4:28:e6:c3:
        aa:ea:2a:f2:2a:a5:b6:a6:25:ce:ee:e1:b6:74:2f:95:92:68:
        e8:b3:21:e8:6c:4d:4c:c0:58:0b:ec:97:86:7f:1d:cb:47:18:
        70:22:01:76:7e:74:11:11:45:eb:90:a2:e1:d3:50:35:69:86:
        0d:65:e1:05:37:c7:d8:62:61:2d:e8:4c:9a:af:27:1c:88:ff:
        04:a8:8a:dc:98:f9:7c:93:9d:26:bb:bb:1f:12:fa:98:a7:89:
        82:a1:3f:b4:bf:09:76:fa:7c:e2:ee:43:49:6c:37:1d:75:7d:
        a9:5b:bf:eb:2e:a5:3d:ca:ec:a6:23:43:1f:1c:22:a2:bb:a9:
        b4:69:e9:4c:63:6c:a4:7e:61:4a:91:97:32:47:9c:a5:1d:25:
        27:93:8a:be:85:f4:d9:52:44:a0:35:36:bb:21:cc:55:49:d7:
        b9:a2:76:06:1a:9c:2a:39:59:8c:70:e0:48:5a:a9:8e:a7:b9:
        c4:77:f4:6b:a5:f9:a4:a8:42:22:61:1b:f8:bb:b4:fa:b7:cc:
        0a:11:de:db:32:24:47:ec:7d:e0:67:c7:6f:98:72:62:1a:ad:
        70:6c:65:d4:05:37:b3:ec:ca:e2:8e:49:5c:35:e1:4a:37:63:
        89:f4:a5:20:ad:3d:cd:54:1d:8d:8a:68:87:98:0a:0d:cc:43:
        c7:f6:c5:a7:32:01:88:93:43:c8:80:6e:d6:c0:8b:55:5a:7b:
        19:f8:3b:a0:59:7f:f6:d8:64:9d:7b:92:a4:16:0f:a3:6a:7d:
        1f:4d:82:af:96:78:e6:4f:45:b5:8a:80:23:4b:9d:f3:78:12:
        50:1c:5b:aa:5d:49:9d:74:f7:a5:21:66:c1:84:01:4c:bd:ae:
        7a:28:bb:0d:71:65:7a:d7
-----BEGIN CERTIFICATE-----
MIIGRzCCBC+gAwIBAgIBAzANBgkqhkiG9w0BAQUFADCBkDELMAkGA1UEBhMCQkEx
CzAJBgNVBAgTAlJTMRMwEQYDVQQHEwpCYW5qYSBMdWthMSEwHwYDVQQKExhFbGVr
dHJvdGVobmlja2kgZmFrdWx0ZXQxDDAKBgNVBAsTA0VURjESMBAGA1UEAxMJQ0Eg
dGlqZWxvMRowGAYJKoZIhvcNAQkBFgtjYUBtYWlsLmNvbTAeFw0yNDA0MjExODI4
NDNaFw0yNTAyMTUxODI4NDNaMGkxCzAJBgNVBAYTAkJBMQswCQYDVQQIEwJSUzEM
MAoGA1UEChMDRVRGMQ4wDAYDVQQLEwVFVEZCTDEPMA0GA1UEAxMGTmlrb2xhMR4w
HAYJKoZIhvcNAQkBFg9uaWtvbGFAbWFpbC5jb20wggIiMA0GCSqGSIb3DQEBAQUA
A4ICDwAwggIKAoICAQDYtpXC0KmhzVr3pjgs2zBMrNwWnolbilpY6F/FnLGOgdgi
jJEAHVjbi2c7Qft8SA3OF/hADE0JSyJDGB9IbCvyU3vS7bvP0BM+igwz6DylWZNy
sFf60/sfqlsgEzV1hrtBj2c4Ol6WgTRIOlIit7alkNZhhntburLQ9lBgmQ7czgO9
VhPnW41BAqDkbpzaiyUA3XSpgxSdOZl+BM7LaiotiZQc+/LQJ90PF2Atqy74RXcN
oJ4Yh+Cu4x+XACwcPe+fYl0NraFfcuHxmvd6B4UqJvXnkpYhYqqWle/StTYCuuaT
jknBCIq3Y94QdQiWLhD25UrONKD+BeMW2ILiciWtHcvCVRsSth2Blt3nlu0jB2V2
HTvexJ/NVA4mI+77xZ3GsiPvFUf2q+LdcoPPch8tdPARkbsfvoSYnEARRfVnISLI
RZdap8qHCaFSnh+tNThK8cB5dzlSCMfoDSWgPzy68opGgrXPTWY27YEy5SokcHzX
H5HMaZJevzKenCBp3uSad1ByQKFgZy7if/K2kQcyJIcna+/jVOGO9lusbHGhdxyh
DpIuwE69MEH1Bwd2OIFX3LM5wPjU6ffFrEYIESZg0T8TQmUZpEeHSgjnoBhIl6NB
OY1LnlFDEuCmt3dlKS85BdFWC5hFzaHJAm+4SoNDjIKkBSGhimG0TrAP96WOGQID
AQABo4HRMIHOMAkGA1UdEwQCMAAwCwYDVR0PBAQDAgSQMBMGA1UdJQQMMAoGCCsG
AQUFBwMCMCwGCWCGSAGG+EIBDQQfFh1PcGVuU1NMIEdlbmVyYXRlZCBDZXJ0aWZp
Y2F0ZTAdBgNVHQ4EFgQULpgHX7gegI6djEIA3STBiUAsJUswHwYDVR0jBBgwFoAU
LpgHX7gegI6djEIA3STBiUAsJUswMQYDVR0fBCowKDAmoCSgIoYgaHR0cDovLzE5
Mi4xNjguMjEuODkvcm9vdGNybC5wZW0wDQYJKoZIhvcNAQEFBQADggIBAFczdFQ/
Q869a5de3Mgj3rhshhii/CtwjJqg9e4RHFaQSulfoC3vFto4AyeVFNGTbZ7AQXZt
gjBk/Do6yipiuMifSJsbdH/t02vunqKsEO5V7k6+3Nwy6rMbda1ngzGQtHkIDMNz
457pQgi5DSj+oTp4e1S1Vrmn7vtOB+HZuLuWU3rF4D7GlPMEKq+C8Irny9zrAu9/
4NWOALIlT1c8Ccce42snZ6c4wa8bfsnV+H7r1Cjmw6rqKvIqpbamJc7u4bZ0L5WS
aOizIehsTUzAWAvsl4Z/HctHGHAiAXZ+dBERReuQouHTUDVphg1l4QU3x9hiYS3o
TJqvJxyI/wSoityY+XyTnSa7ux8S+piniYKhP7S/CXb6fOLuQ0lsNx11falbv+su
pT3K7KYjQx8cIqK7qbRp6UxjbKR+YUqRlzJHnKUdJSeTir6F9NlSRKA1NrshzFVJ
17midgYanCo5WYxw4EhaqY6nucR39Gul+aSoQiJhG/i7tPq3zAoR3tsyJEfsfeBn
x2+YcmIarXBsZdQFN7PsyuKOSVw14Uo3Y4n0pSCtPc1UHY2KaIeYCg3MQ8f2xacy
AYiTQ8iAbtbAi1Vaexn4O6BZf/bYZJ17kqQWD6NqfR9Ngq+WeOZPRbWKgCNLnfN4
ElAcW6pdSZ1096UhZsGEAUy9rnoouw1xZXrX
-----END CERTIFICATE-----
